#include <math.h>
#include <stdio.h>
#include <stdlib.h>
#include <string.h>

int main()
{
  int n;
  scanf("%d",&n);
  while(n--){
  char s[256];
  int i;
  scanf("%s",s);
  int len=strlen(s);
  for(i=0;i<len;i++){
  if(s[i]=='A')
     s[i]='T';
  else if(s[i]=='T')
	  s[i]='A';
  else if(s[i]=='C')
      s[i]='G';
  else if(s[i]=='G')
	  s[i]='C';
  }
  printf("%s\n",s);

  }
  return 0;
}
